; Function Attrs: nounwind uwtable
define dso_local i32 @PyErr_ExceptionMatches(ptr noundef %0) local_unnamed_addr #0 {
  %2 = tail call align 8 ptr @llvm.threadlocal.address.p0(ptr align 8 @_Py_tss_tstate)
  %3 = load ptr, ptr %2, align 8, !tbaa !25
  %4 = getelementptr i8, ptr %3, i64 112
  %.val.i = load ptr, ptr %4, align 8, !tbaa !4
  %5 = icmp eq ptr %.val.i, null
  br i1 %5, label %_PyErr_ExceptionMatches.exit, label %6

6:                                                ; preds = %1
  %7 = getelementptr i8, ptr %.val.i, i64 8
  %.val.i.i = load ptr, ptr %7, align 8, !tbaa !21
  br label %_PyErr_ExceptionMatches.exit

_PyErr_ExceptionMatches.exit:                     ; preds = %1, %6
  %.0.i.i = phi ptr [ %.val.i.i, %6 ], [ null, %1 ]
  %8 = tail call i32 @PyErr_GivenExceptionMatches(ptr noundef %.0.i.i, ptr noundef %0)
  ret i32 %8
}